(lp0
(I1
F35.744088888168335
tp1
a(I2
F54.83434987068176
tp2
a(I3
F77.39897298812866
tp3
a(I4
F97.21577191352844
tp4
a(I5
F123.4919331073761
tp5
a(I6
F148.7550401687622
tp6
a(I7
F177.38514614105225
tp7
a(I8
F227.49793195724487
tp8
a(I9
F243.88363909721375
tp9
a(I10
F282.65052604675293
tp10
a.