(lp0
(dp1
S'hop_mass_fraction'
p2
cnumpy.core.multiarray
scalar
p3
(cnumpy
dtype
p4
(S'f8'
p5
I0
I1
tp6
Rp7
(I3
S'<'
p8
NNNI-1
I-1
I0
tp9
bS'\xf1\xff\xff\xff\xff\x87\xe7?'
p10
tp11
Rp12
sS'distance'
p13
ccopy_reg
_reconstructor
p14
(camuse.units.quantities
ScalarQuantity
p15
c__builtin__
object
p16
Ntp17
Rp18
(g14
(camuse.units.core
named_unit
p19
g16
Ntp20
Rp21
(dp22
S'symbol'
p23
S'parsec'
p24
sS'base'
p25
((I1
camuse.units.core
get_base_unit_with_name
p26
(camuse.units.core
get_system_with_name
p27
(S'S.I.'
p28
tp29
Rp30
S'length'
p31
tp32
Rp33
tp34
tp35
sS'local_unit'
p36
g14
(camuse.units.core
factor_unit
p37
g16
Ntp38
Rp39
(dp40
S'local_factor'
p41
F206264.80624548031
sS'name'
p42
Nsg23
Nsg25
g35
sS'factor'
p43
F3.0856775812815532e+16
sg36
g14
(g19
g16
Ntp44
Rp45
(dp46
g23
S'AU'
p47
sg25
g35
sg36
g14
(g37
g16
Ntp48
Rp49
(dp50
g41
F149597870691.0
sg42
Nsg23
Nsg25
g35
sg43
F149597870691.0
sg36
g33
sbsg42
S'astronomical unit'
p51
sg43
F149597870691.0
sbsbsg42
g24
sg43
F3.0856775812815532e+16
sbI3000
tp52
bsS'radius'
p53
g14
(g15
g16
Ntp54
Rp55
(g14
(g37
g16
Ntp56
Rp57
(dp58
g41
F3.0856775812815532e+16
sg42
Nsg23
Nsg25
g35
sg43
F3.0856775812815532e+16
sg36
g33
sbF15.0
tp59
bsS'escape_velocity_fraction'
p60
F0.8
sS'velocity'
p61
g14
(g15
g16
Ntp62
Rp63
(g14
(camuse.units.core
mul_unit
p64
g16
Ntp65
Rp66
(dp67
S'right_hand'
p68
g14
(camuse.units.core
pow_unit
p69
g16
Ntp70
Rp71
(dp72
g25
((I-1
g26
(g30
S'time'
p73
tp74
Rp75
tp76
tp77
sg36
g75
sS'power'
p78
I-1
sg43
F1.0
sbsg25
((I1
g33
tp79
(I-1
g75
tp80
tp81
sS'left_hand'
p82
g33
sg43
F1.0
sbg3
(g7
S'\x08\xcab\xea\x8747A'
p83
tp84
Rp85
tp86
bsa(dp87
g2
g3
(g7
S'\xfe\xff\xff\xff\xff\x97\xee?'
p88
tp89
Rp90
sg13
g18
sg53
g55
sg60
F1.0
sg61
g14
(g15
g16
Ntp91
Rp92
(g14
(g64
g16
Ntp93
Rp94
(dp95
g68
g14
(g69
g16
Ntp96
Rp97
(dp98
g25
((I-1
g75
tp99
tp100
sg36
g75
sg78
I-1
sg43
F1.0
sbsg25
((I1
g33
tp101
(I-1
g75
tp102
tp103
sg82
g33
sg43
F1.0
sbg3
(g7
S'\x89|\xfb\xe4\xa9\x01=A'
p104
tp105
Rp106
tp107
bsa(dp108
g2
g3
(g7
S'\xfe\xff\xff\xff\xff\x07\xef?'
p109
tp110
Rp111
sg13
g18
sg53
g55
sg60
F1.2
sg61
g14
(g15
g16
Ntp112
Rp113
(g14
(g64
g16
Ntp114
Rp115
(dp116
g68
g14
(g69
g16
Ntp117
Rp118
(dp119
g25
((I-1
g75
tp120
tp121
sg36
g75
sg78
I-1
sg43
F1.0
sbsg25
((I1
g33
tp122
(I-1
g75
tp123
tp124
sg82
g33
sg43
F1.0
sbg3
(g7
S'\x85\x17\xca\xefegAA'
p125
tp126
Rp127
tp128
bsa(dp129
g2
g3
(g7
S'\xf2\xff\xff\xff\xff\xf7\xe7?'
p130
tp131
Rp132
sg13
g14
(g15
g16
Ntp133
Rp134
(g21
I6000
tp135
bsg53
g14
(g15
g16
Ntp136
Rp137
(g14
(g37
g16
Ntp138
Rp139
(dp140
g41
F3.0856775812815532e+16
sg42
Nsg23
Nsg25
g35
sg43
F3.0856775812815532e+16
sg36
g33
sbF30.0
tp141
bsg60
F0.8
sg61
g14
(g15
g16
Ntp142
Rp143
(g14
(g64
g16
Ntp144
Rp145
(dp146
g68
g14
(g69
g16
Ntp147
Rp148
(dp149
g25
((I-1
g75
tp150
tp151
sg36
g75
sg78
I-1
sg43
F1.0
sbsg25
((I1
g33
tp152
(I-1
g75
tp153
tp154
sg82
g33
sg43
F1.0
sbg3
(g7
S'4\xa3j\xf6\x96h0A'
p155
tp156
Rp157
tp158
bsa(dp159
g2
g3
(g7
S'\xfc\xff\xff\xff\xff\x87\xed?'
p160
tp161
Rp162
sg13
g134
sg53
g137
sg60
F1.0
sg61
g14
(g15
g16
Ntp163
Rp164
(g14
(g64
g16
Ntp165
Rp166
(dp167
g68
g14
(g69
g16
Ntp168
Rp169
(dp170
g25
((I-1
g75
tp171
tp172
sg36
g75
sg78
I-1
sg43
F1.0
sbsg25
((I1
g33
tp173
(I-1
g75
tp174
tp175
sg82
g33
sg43
F1.0
sbg3
(g7
S'\x01L\x05\xb4\xbc\x824A'
p176
tp177
Rp178
tp179
bsa(dp180
g2
g3
(g7
S'\xfe\xff\xff\xff\xff\x8f\xee?'
p181
tp182
Rp183
sg13
g134
sg53
g137
sg60
F1.2
sg61
g14
(g15
g16
Ntp184
Rp185
(g14
(g64
g16
Ntp186
Rp187
(dp188
g68
g14
(g69
g16
Ntp189
Rp190
(dp191
g25
((I-1
g75
tp192
tp193
sg36
g75
sg78
I-1
sg43
F1.0
sbsg25
((I1
g33
tp194
(I-1
g75
tp195
tp196
sg82
g33
sg43
F1.0
sbg3
(g7
S'\xce\xf4\x9fq\xe2\x9c8A'
p197
tp198
Rp199
tp200
bsa(dp201
g2
g3
(g7
S'\xf2\xff\xff\xff\xff\xd7\xe7?'
p202
tp203
Rp204
sg13
g14
(g15
g16
Ntp205
Rp206
(g21
I12000
tp207
bsg53
g14
(g15
g16
Ntp208
Rp209
(g14
(g37
g16
Ntp210
Rp211
(dp212
g41
F3.0856775812815532e+16
sg42
Nsg23
Nsg25
g35
sg43
F3.0856775812815532e+16
sg36
g33
sbF60.0
tp213
bsg60
F0.8
sg61
g14
(g15
g16
Ntp214
Rp215
(g14
(g64
g16
Ntp216
Rp217
(dp218
g68
g14
(g69
g16
Ntp219
Rp220
(dp221
g25
((I-1
g75
tp222
tp223
sg36
g75
sg78
I-1
sg43
F1.0
sbsg25
((I1
g33
tp224
(I-1
g75
tp225
tp226
sg82
g33
sg43
F1.0
sbg3
(g7
S"\x1f\xcab\xea\x874'A"
p227
tp228
Rp229
tp230
bsa(dp231
g2
g3
(g7
S'\xfc\xff\xff\xff\xff\xb7\xed?'
p232
tp233
Rp234
sg13
g206
sg53
g209
sg60
F1.0
sg61
g14
(g15
g16
Ntp235
Rp236
(g14
(g64
g16
Ntp237
Rp238
(dp239
g68
g14
(g69
g16
Ntp240
Rp241
(dp242
g25
((I-1
g75
tp243
tp244
sg36
g75
sg78
I-1
sg43
F1.0
sbsg25
((I1
g33
tp245
(I-1
g75
tp246
tp247
sg82
g33
sg43
F1.0
sbg3
(g7
S'\xa6|\xfb\xe4\xa9\x01-A'
p248
tp249
Rp250
tp251
bsa(dp252
g2
g3
(g7
S'\xfe\xff\xff\xff\xff\xdf\xee?'
p253
tp254
Rp255
sg13
g206
sg53
g209
sg60
F1.2
sg61
g14
(g15
g16
Ntp256
Rp257
(g14
(g64
g16
Ntp258
Rp259
(dp260
g68
g14
(g69
g16
Ntp261
Rp262
(dp263
g25
((I-1
g75
tp264
tp265
sg36
g75
sg78
I-1
sg43
F1.0
sbsg25
((I1
g33
tp266
(I-1
g75
tp267
tp268
sg82
g33
sg43
F1.0
sbg3
(g7
S'\x97\x17\xca\xefeg1A'
p269
tp270
Rp271
tp272
bsa(dp273
g2
g3
(g7
S'\xf3\xff\xff\xff\xff\x87\xe8?'
p274
tp275
Rp276
sg13
g14
(g15
g16
Ntp277
Rp278
(g21
I18000
tp279
bsg53
g14
(g15
g16
Ntp280
Rp281
(g14
(g37
g16
Ntp282
Rp283
(dp284
g41
F3.0856775812815532e+16
sg42
Nsg23
Nsg25
g35
sg43
F3.0856775812815532e+16
sg36
g33
sbF90.0
tp285
bsg60
F0.8
sg61
g14
(g15
g16
Ntp286
Rp287
(g14
(g64
g16
Ntp288
Rp289
(dp290
g68
g14
(g69
g16
Ntp291
Rp292
(dp293
g25
((I-1
g75
tp294
tp295
sg36
g75
sg78
I-1
sg43
F1.0
sbsg25
((I1
g33
tp296
(I-1
g75
tp297
tp298
sg82
g33
sg43
F1.0
sbg3
(g7
S'\xc5\x16\xdeUl\xf2"A'
p299
tp300
Rp301
tp302
bsa(dp303
g2
g3
(g7
S'\xfd\xff\xff\xff\xff_\xee?'
p304
tp305
Rp306
sg13
g278
sg53
g281
sg60
F1.0
sg61
g14
(g15
g16
Ntp307
Rp308
(g14
(g64
g16
Ntp309
Rp310
(dp311
g68
g14
(g69
g16
Ntp312
Rp313
(dp314
g25
((I-1
g75
tp315
tp316
sg36
g75
sg78
I-1
sg43
F1.0
sbsg25
((I1
g33
tp317
(I-1
g75
tp318
tp319
sg82
g33
sg43
F1.0
sbg3
(g7
S"v\x9cUk\x07\xaf'A"
p320
tp321
Rp322
tp323
bsa(dp324
g2
g3
(g7
S'\xff\xff\xff\xff\xffG\xef?'
p325
tp326
Rp327
sg13
g278
sg53
g281
sg60
F1.2
sg61
g14
(g15
g16
Ntp328
Rp329
(g14
(g64
g16
Ntp330
Rp331
(dp332
g68
g14
(g69
g16
Ntp333
Rp334
(dp335
g25
((I-1
g75
tp336
tp337
sg36
g75
sg78
I-1
sg43
F1.0
sbsg25
((I1
g33
tp338
(I-1
g75
tp339
tp340
sg82
g33
sg43
F1.0
sbg3
(g7
S'\'"\xcd\x80\xa2k,A'
p341
tp342
Rp343
tp344
bsa.