(lp0
(dp1
S'hop_mass_fraction'
p2
cnumpy.core.multiarray
scalar
p3
(cnumpy
dtype
p4
(S'f8'
p5
I0
I1
tp6
Rp7
(I3
S'<'
p8
NNNI-1
I-1
I0
tp9
bS'\x00\x00\x00\x00\x00\x00\x00\x00'
p10
tp11
Rp12
sS'distance'
p13
ccopy_reg
_reconstructor
p14
(camuse.units.quantities
ScalarQuantity
p15
c__builtin__
object
p16
Ntp17
Rp18
(g14
(camuse.units.core
named_unit
p19
g16
Ntp20
Rp21
(dp22
S'symbol'
p23
S'parsec'
p24
sS'base'
p25
((I1
camuse.units.core
get_base_unit_with_name
p26
(camuse.units.core
get_system_with_name
p27
(S'S.I.'
p28
tp29
Rp30
S'length'
p31
tp32
Rp33
tp34
tp35
sS'local_unit'
p36
g14
(camuse.units.core
factor_unit
p37
g16
Ntp38
Rp39
(dp40
S'local_factor'
p41
F206264.80624548031
sS'name'
p42
Nsg23
Nsg25
g35
sS'factor'
p43
F3.0856775812815532e+16
sg36
g14
(g19
g16
Ntp44
Rp45
(dp46
g23
S'AU'
p47
sg25
g35
sg36
g14
(g37
g16
Ntp48
Rp49
(dp50
g41
F149597870691.0
sg42
Nsg23
Nsg25
g35
sg43
F149597870691.0
sg36
g33
sbsg42
S'astronomical unit'
p51
sg43
F149597870691.0
sbsbsg42
g24
sg43
F3.0856775812815532e+16
sbI18000
tp52
bsS'radius'
p53
g14
(g15
g16
Ntp54
Rp55
(g21
I130
tp56
bsS'energy_mass_fraction'
p57
g3
(g7
S'\x00\x00\x00\x00\x00\x00\xf0?'
p58
tp59
Rp60
sa(dp61
g2
g3
(g7
S'\x00\x00\x00\x00\x00\x00\x00\x00'
p62
tp63
Rp64
sg13
g18
sg53
g14
(g15
g16
Ntp65
Rp66
(g21
I140
tp67
bsg57
g3
(g7
S'\x00\x00\x00\x00\x00\x00\xf0?'
p68
tp69
Rp70
sa(dp71
g2
g3
(g7
S'\x00\x00\x00\x00\x00\x00\x00\x00'
p72
tp73
Rp74
sg13
g18
sg53
g14
(g15
g16
Ntp75
Rp76
(g21
I150
tp77
bsg57
g3
(g7
S'\x00\x00\x00\x00\x00\x00\xf0?'
p78
tp79
Rp80
sa(dp81
S'hop_mass_fraction'
p82
g3
(g7
S'\xfe\xff\xff\xff\xff\xcf\xee?'
p83
tp84
Rp85
sS'distance'
p86
g14
(g15
g16
Ntp87
Rp88
(g14
(g19
g16
Ntp89
Rp90
(dp91
g23
S'parsec'
p92
sg25
((I1
g33
tp93
tp94
sg36
g14
(g37
g16
Ntp95
Rp96
(dp97
g41
F206264.80624548031
sg42
Nsg23
Nsg25
g94
sg43
F3.0856775812815532e+16
sg36
g14
(g19
g16
Ntp98
Rp99
(dp100
g23
S'AU'
p101
sg25
g94
sg36
g14
(g37
g16
Ntp102
Rp103
(dp104
g41
F149597870691.0
sg42
Nsg23
Nsg25
g94
sg43
F149597870691.0
sg36
g33
sbsg42
S'astronomical unit'
p105
sg43
F149597870691.0
sbsbsg42
g92
sg43
F3.0856775812815532e+16
sbI18000
tp106
bsS'radius'
p107
g14
(g15
g16
Ntp108
Rp109
(g90
I20
tp110
bsS'energy_mass_fraction'
p111
g3
(g7
S'\x00\x00\x00\x00\x00\x00\xf0?'
p112
tp113
Rp114
sa(dp115
g82
g3
(g7
S'\xfd\xff\xff\xff\xff?\xee?'
p116
tp117
Rp118
sg86
g88
sg107
g14
(g15
g16
Ntp119
Rp120
(g90
I30
tp121
bsg111
g3
(g7
S'\x00\x00\x00\x00\x00\x00\xf0?'
p122
tp123
Rp124
sa(dp125
g82
g3
(g7
S'\xfb\xff\xff\xff\xff_\xed?'
p126
tp127
Rp128
sg86
g88
sg107
g14
(g15
g16
Ntp129
Rp130
(g90
I40
tp131
bsg111
g3
(g7
S'\x00\x00\x00\x00\x00\x00\xf0?'
p132
tp133
Rp134
sa(dp135
g82
g3
(g7
S'\xf9\xff\xff\xff\xff\x17\xec?'
p136
tp137
Rp138
sg86
g88
sg107
g14
(g15
g16
Ntp139
Rp140
(g90
I50
tp141
bsg111
g3
(g7
S'\x00\x00\x00\x00\x00\x00\xf0?'
p142
tp143
Rp144
sa(dp145
g82
g3
(g7
S'\xf7\xff\xff\xff\xff\xa7\xea?'
p146
tp147
Rp148
sg86
g88
sg107
g14
(g15
g16
Ntp149
Rp150
(g90
I60
tp151
bsg111
g3
(g7
S'\x00\x00\x00\x00\x00\x00\xf0?'
p152
tp153
Rp154
sa(dp155
g82
g3
(g7
S'\xf2\xff\xff\xff\xff\xaf\xe7?'
p156
tp157
Rp158
sg86
g88
sg107
g14
(g15
g16
Ntp159
Rp160
(g90
I70
tp161
bsg111
g3
(g7
S'\x00\x00\x00\x00\x00\x00\xf0?'
p162
tp163
Rp164
sa(dp165
g82
g3
(g7
S'\xf1\xff\xff\xff\xff\x17\xe7?'
p166
tp167
Rp168
sg86
g88
sg107
g14
(g15
g16
Ntp169
Rp170
(g90
I80
tp171
bsg111
g3
(g7
S'\x00\x00\x00\x00\x00\x00\xf0?'
p172
tp173
Rp174
sa(dp175
g82
g3
(g7
S'\xe9\xff\xff\xff\xff\xdf\xe2?'
p176
tp177
Rp178
sg86
g88
sg107
g14
(g15
g16
Ntp179
Rp180
(g90
I90
tp181
bsg111
g3
(g7
S'\x00\x00\x00\x00\x00\x00\xf0?'
p182
tp183
Rp184
sa(dp185
g82
g3
(g7
S'\xbc\xff\xff\xff\xffo\xd8?'
p186
tp187
Rp188
sg86
g88
sg107
g14
(g15
g16
Ntp189
Rp190
(g90
I100
tp191
bsg111
g3
(g7
S'\x00\x00\x00\x00\x00\x00\xf0?'
p192
tp193
Rp194
sa(dp195
g82
g3
(g7
S'\x00\x00\x00\x00\x00\x00\x00\x00'
p196
tp197
Rp198
sg86
g88
sg107
g14
(g15
g16
Ntp199
Rp200
(g90
I110
tp201
bsg111
g3
(g7
S'\x00\x00\x00\x00\x00\x00\xf0?'
p202
tp203
Rp204
sa.