(lp0
(dp1
S'hop_mass_fraction'
p2
cnumpy.core.multiarray
scalar
p3
(cnumpy
dtype
p4
(S'f8'
p5
I0
I1
tp6
Rp7
(I3
S'<'
p8
NNNI-1
I-1
I0
tp9
bS'\xff\xff\xff\xff\xffO\xef?'
p10
tp11
Rp12
sS'distance'
p13
ccopy_reg
_reconstructor
p14
(camuse.units.quantities
ScalarQuantity
p15
c__builtin__
object
p16
Ntp17
Rp18
(g14
(camuse.units.core
named_unit
p19
g16
Ntp20
Rp21
(dp22
S'symbol'
p23
S'parsec'
p24
sS'base'
p25
((I1
camuse.units.core
get_base_unit_with_name
p26
(camuse.units.core
get_system_with_name
p27
(S'S.I.'
p28
tp29
Rp30
S'length'
p31
tp32
Rp33
tp34
tp35
sS'local_unit'
p36
g14
(camuse.units.core
factor_unit
p37
g16
Ntp38
Rp39
(dp40
S'local_factor'
p41
F206264.80624548031
sS'name'
p42
Nsg23
Nsg25
g35
sS'factor'
p43
F3.0856775812815532e+16
sg36
g14
(g19
g16
Ntp44
Rp45
(dp46
g23
S'AU'
p47
sg25
g35
sg36
g14
(g37
g16
Ntp48
Rp49
(dp50
g41
F149597870691.0
sg42
Nsg23
Nsg25
g35
sg43
F149597870691.0
sg36
g33
sbsg42
S'astronomical unit'
p51
sg43
F149597870691.0
sbsbsg42
g24
sg43
F3.0856775812815532e+16
sbI12000
tp52
bsS'energy_mass_fraction'
p53
g3
(g7
S'\x00\x00\x00\x00\x00\x00\xf0?'
p54
tp55
Rp56
sS'radius'
p57
g14
(g15
g16
Ntp58
Rp59
(g21
I10
tp60
bsa(dp61
g2
g3
(g7
S'\xfc\xff\xff\xff\xff\xf7\xed?'
p62
tp63
Rp64
sg13
g18
sg53
g3
(g7
S'\x00\x00\x00\x00\x00\x00\xf0?'
p65
tp66
Rp67
sg57
g14
(g15
g16
Ntp68
Rp69
(g21
I20
tp70
bsa(dp71
g2
g3
(g7
S'\xfa\xff\xff\xff\xff\xb7\xec?'
p72
tp73
Rp74
sg13
g18
sg53
g3
(g7
S'\x00\x00\x00\x00\x00\x00\xf0?'
p75
tp76
Rp77
sg57
g14
(g15
g16
Ntp78
Rp79
(g21
I30
tp80
bsa(dp81
g2
g3
(g7
S"\xf8\xff\xff\xff\xff'\xeb?"
p82
tp83
Rp84
sg13
g18
sg53
g3
(g7
S'\x00\x00\x00\x00\x00\x00\xf0?'
p85
tp86
Rp87
sg57
g14
(g15
g16
Ntp88
Rp89
(g21
I40
tp90
bsa(dp91
g2
g3
(g7
S'\xf0\xff\xff\xff\xff\xef\xe6?'
p92
tp93
Rp94
sg13
g18
sg53
g3
(g7
S'\x00\x00\x00\x00\x00\x00\xf0?'
p95
tp96
Rp97
sg57
g14
(g15
g16
Ntp98
Rp99
(g21
I50
tp100
bsa(dp101
g2
g3
(g7
S'\xe9\xff\xff\xff\xff\xaf\xe2?'
p102
tp103
Rp104
sg13
g18
sg53
g3
(g7
S'\x00\x00\x00\x00\x00\x00\xf0?'
p105
tp106
Rp107
sg57
g14
(g15
g16
Ntp108
Rp109
(g21
I60
tp110
bsa(dp111
g2
g3
(g7
S'\xce\xff\xff\xff\xff?\xb3?'
p112
tp113
Rp114
sg13
g18
sg53
g3
(g7
S'\x00\x00\x00\x00\x00\x00\xf0?'
p115
tp116
Rp117
sg57
g14
(g15
g16
Ntp118
Rp119
(g21
I70
tp120
bsa(dp121
g2
g3
(g7
S'\x00\x00\x00\x00\x00\x00\x00\x00'
p122
tp123
Rp124
sg13
g18
sg53
g3
(g7
S'\x00\x00\x00\x00\x00\x00\xf0?'
p125
tp126
Rp127
sg57
g14
(g15
g16
Ntp128
Rp129
(g21
I80
tp130
bsa(dp131
g2
g3
(g7
S'\x00\x00\x00\x00\x00\x00\x00\x00'
p132
tp133
Rp134
sg13
g18
sg53
g3
(g7
S'\x00\x00\x00\x00\x00\x00\xf0?'
p135
tp136
Rp137
sg57
g14
(g15
g16
Ntp138
Rp139
(g21
I90
tp140
bsa(dp141
g2
g3
(g7
S'\x00\x00\x00\x00\x00\x00\x00\x00'
p142
tp143
Rp144
sg13
g18
sg53
g3
(g7
S'\x00\x00\x00\x00\x00\x00\xf0?'
p145
tp146
Rp147
sg57
g14
(g15
g16
Ntp148
Rp149
(g21
I100
tp150
bsa(dp151
S'hop_mass_fraction'
p152
g3
(g7
S'\xe9\xff\xff\xff\xff\xa7\xe2?'
p153
tp154
Rp155
sS'distance'
p156
g14
(g15
g16
Ntp157
Rp158
(g14
(g19
g16
Ntp159
Rp160
(dp161
g23
S'parsec'
p162
sg25
((I1
g33
tp163
tp164
sg36
g14
(g37
g16
Ntp165
Rp166
(dp167
g41
F206264.80624548031
sg42
Nsg23
Nsg25
g164
sg43
F3.0856775812815532e+16
sg36
g14
(g19
g16
Ntp168
Rp169
(dp170
g23
S'AU'
p171
sg25
g164
sg36
g14
(g37
g16
Ntp172
Rp173
(dp174
g41
F149597870691.0
sg42
Nsg23
Nsg25
g164
sg43
F149597870691.0
sg36
g33
sbsg42
S'astronomical unit'
p175
sg43
F149597870691.0
sbsbsg42
g162
sg43
F3.0856775812815532e+16
sbI12000
tp176
bsS'energy_mass_fraction'
p177
g3
(g7
S'\x00\x00\x00\x00\x00\x00\xf0?'
p178
tp179
Rp180
sS'radius'
p181
g14
(g15
g16
Ntp182
Rp183
(g160
I61
tp184
bsa(dp185
g152
g3
(g7
S"\xe6\xff\xff\xff\xff'\xe1?"
p186
tp187
Rp188
sg156
g158
sg177
g3
(g7
S'\x00\x00\x00\x00\x00\x00\xf0?'
p189
tp190
Rp191
sg181
g14
(g15
g16
Ntp192
Rp193
(g160
I62
tp194
bsa(dp195
g152
g3
(g7
S'\xc4\xff\xff\xff\xff\x0f\xdd?'
p196
tp197
Rp198
sg156
g158
sg177
g3
(g7
S'\x00\x00\x00\x00\x00\x00\xf0?'
p199
tp200
Rp201
sg181
g14
(g15
g16
Ntp202
Rp203
(g160
I63
tp204
bsa(dp205
g152
g3
(g7
S'\xc1\xff\xff\xff\xffO\xdb?'
p206
tp207
Rp208
sg156
g158
sg177
g3
(g7
S'\x00\x00\x00\x00\x00\x00\xf0?'
p209
tp210
Rp211
sg181
g14
(g15
g16
Ntp212
Rp213
(g160
I64
tp214
bsa(dp215
g152
g3
(g7
S'\xe6\xff\xff\xff\xff\xd7\xe0?'
p216
tp217
Rp218
sg156
g158
sg177
g3
(g7
S'\x00\x00\x00\x00\x00\x00\xf0?'
p219
tp220
Rp221
sg181
g14
(g15
g16
Ntp222
Rp223
(g160
I65
tp224
bsa(dp225
g152
g3
(g7
S'\xc9\xff\xff\xff\xff\x7f\xdf?'
p226
tp227
Rp228
sg156
g158
sg177
g3
(g7
S'\x00\x00\x00\x00\x00\x00\xf0?'
p229
tp230
Rp231
sg181
g14
(g15
g16
Ntp232
Rp233
(g160
I66
tp234
bsa(dp235
g152
g3
(g7
S'\xe7\xff\xff\xff\xff\xd7\xe1?'
p236
tp237
Rp238
sg156
g158
sg177
g3
(g7
S'\x00\x00\x00\x00\x00\x00\xf0?'
p239
tp240
Rp241
sg181
g14
(g15
g16
Ntp242
Rp243
(g160
I67
tp244
bsa(dp245
g152
g3
(g7
S'\xbb\xff\xff\xff\xff\xdf\xd7?'
p246
tp247
Rp248
sg156
g158
sg177
g3
(g7
S'\x00\x00\x00\x00\x00\x00\xf0?'
p249
tp250
Rp251
sg181
g14
(g15
g16
Ntp252
Rp253
(g160
I68
tp254
bsa(dp255
g152
g3
(g7
S'\xd4\xff\xff\xff\xff\xff\x90?'
p256
tp257
Rp258
sg156
g158
sg177
g3
(g7
S'\x00\x00\x00\x00\x00\x00\xf0?'
p259
tp260
Rp261
sg181
g14
(g15
g16
Ntp262
Rp263
(g160
I69
tp264
bsa(dp265
S'hop_mass_fraction'
p266
g3
(g7
S'\x00\x00\x00\x00\x00\x00\x00\x00'
p267
tp268
Rp269
sS'distance'
p270
g14
(g15
g16
Ntp271
Rp272
(g14
(g19
g16
Ntp273
Rp274
(dp275
g23
S'parsec'
p276
sg25
((I1
g33
tp277
tp278
sg36
g14
(g37
g16
Ntp279
Rp280
(dp281
g41
F206264.80624548031
sg42
Nsg23
Nsg25
g278
sg43
F3.0856775812815532e+16
sg36
g14
(g19
g16
Ntp282
Rp283
(dp284
g23
S'AU'
p285
sg25
g278
sg36
g14
(g37
g16
Ntp286
Rp287
(dp288
g41
F149597870691.0
sg42
Nsg23
Nsg25
g278
sg43
F149597870691.0
sg36
g33
sbsg42
S'astronomical unit'
p289
sg43
F149597870691.0
sbsbsg42
g276
sg43
F3.0856775812815532e+16
sbI12000
tp290
bsS'radius'
p291
g14
(g15
g16
Ntp292
Rp293
(g274
I71
tp294
bsS'energy_mass_fraction'
p295
g3
(g7
S'\x00\x00\x00\x00\x00\x00\xf0?'
p296
tp297
Rp298
sa(dp299
g266
g3
(g7
S'\xbb\xff\xff\xff\xff\xbf\xba?'
p300
tp301
Rp302
sg270
g272
sg291
g14
(g15
g16
Ntp303
Rp304
(g274
I72
tp305
bsg295
g3
(g7
S'\x00\x00\x00\x00\x00\x00\xf0?'
p306
tp307
Rp308
sa(dp309
g266
g3
(g7
S'\xd1\xff\xff\xff\xff?\xb2?'
p310
tp311
Rp312
sg270
g272
sg291
g14
(g15
g16
Ntp313
Rp314
(g274
I73
tp315
bsg295
g3
(g7
S'\x00\x00\x00\x00\x00\x00\xf0?'
p316
tp317
Rp318
sa(dp319
g266
g3
(g7
S'\xbb\xff\xff\xff\xff\x9f\xd7?'
p320
tp321
Rp322
sg270
g272
sg291
g14
(g15
g16
Ntp323
Rp324
(g274
I74
tp325
bsg295
g3
(g7
S'\x00\x00\x00\x00\x00\x00\xf0?'
p326
tp327
Rp328
sa(dp329
g266
g3
(g7
S'\xb1\xff\xff\xff\xff\x7f\xae?'
p330
tp331
Rp332
sg270
g272
sg291
g14
(g15
g16
Ntp333
Rp334
(g274
I75
tp335
bsg295
g3
(g7
S'\x00\x00\x00\x00\x00\x00\xf0?'
p336
tp337
Rp338
sa(dp339
g266
g3
(g7
S'\x00\x00\x00\x00\x00\x00\x00\x00'
p340
tp341
Rp342
sg270
g272
sg291
g14
(g15
g16
Ntp343
Rp344
(g274
I76
tp345
bsg295
g3
(g7
S'\x00\x00\x00\x00\x00\x00\xf0?'
p346
tp347
Rp348
sa(dp349
g266
g3
(g7
S'\x00\x00\x00\x00\x00\x00\x00\x00'
p350
tp351
Rp352
sg270
g272
sg291
g14
(g15
g16
Ntp353
Rp354
(g274
I77
tp355
bsg295
g3
(g7
S'\x00\x00\x00\x00\x00\x00\xf0?'
p356
tp357
Rp358
sa(dp359
g266
g3
(g7
S'\x00\x00\x00\x00\x00\x00\x00\x00'
p360
tp361
Rp362
sg270
g272
sg291
g14
(g15
g16
Ntp363
Rp364
(g274
I78
tp365
bsg295
g3
(g7
S'\x00\x00\x00\x00\x00\x00\xf0?'
p366
tp367
Rp368
sa(dp369
g266
g3
(g7
S'\x00\x00\x00\x00\x00\x00\x00\x00'
p370
tp371
Rp372
sg270
g272
sg291
g14
(g15
g16
Ntp373
Rp374
(g274
I79
tp375
bsg295
g3
(g7
S'\x00\x00\x00\x00\x00\x00\xf0?'
p376
tp377
Rp378
sa.