(lp0
(dp1
S'algorithm_name'
p2
S'SeBa'
p3
sS'metallicity'
p4
F0.02
sS'radius'
p5
ccopy_reg
_reconstructor
p6
(camuse.units.quantities
VectorQuantity
p7
c__builtin__
object
p8
Ntp9
Rp10
(g6
(camuse.units.core
named_unit
p11
g8
Ntp12
Rp13
(dp14
S'symbol'
p15
S'RSun'
p16
sS'base'
p17
((I1
camuse.units.core
get_base_unit_with_name
p18
(camuse.units.core
get_system_with_name
p19
(S'S.I.'
p20
tp21
Rp22
S'length'
p23
tp24
Rp25
tp26
tp27
sS'local_unit'
p28
g6
(camuse.units.core
factor_unit
p29
g8
Ntp30
Rp31
(dp32
S'local_factor'
p33
F695500000.0
sS'name'
p34
Nsg15
Nsg17
g27
sS'factor'
p35
F695500000.0
sg28
g25
sbsg34
S'solar radius'
p36
sg35
F695500000.0
sbcnumpy.core.multiarray
_reconstruct
p37
(cnumpy
ndarray
p38
(I0
tp39
S'b'
p40
tp41
Rp42
(I1
(I1
tp43
cnumpy
dtype
p44
(S'f8'
p45
I0
I1
tp46
Rp47
(I3
S'<'
p48
NNNI-1
I-1
I0
tp49
bI00
S'4X\xf7\xf8&\x8a\xef?'
p50
tp51
btp52
bsS'luminosity'
p53
g6
(g7
g8
Ntp54
Rp55
(g6
(g11
g8
Ntp56
Rp57
(dp58
g15
S'LSun'
p59
sg17
((I2
g25
tp60
(I1
g18
(g22
S'mass'
p61
tp62
Rp63
tp64
(I-3
g18
(g22
S'time'
p65
tp66
Rp67
tp68
tp69
sg28
g6
(g29
g8
Ntp70
Rp71
(dp72
g33
F3.839e+26
sg34
Nsg15
Nsg17
g69
sg35
F3.839e+26
sg28
g6
(g11
g8
Ntp73
Rp74
(dp75
g15
S'W'
p76
sg17
g69
sg28
g6
(camuse.units.core
div_unit
p77
g8
Ntp78
Rp79
(dp80
S'right_hand'
p81
g67
sg17
g69
sS'left_hand'
p82
g6
(g11
g8
Ntp83
Rp84
(dp85
g15
S'J'
p86
sg17
((I2
g25
tp87
(I1
g63
tp88
(I-2
g67
tp89
tp90
sg28
g6
(camuse.units.core
mul_unit
p91
g8
Ntp92
Rp93
(dp94
g81
g6
(camuse.units.core
pow_unit
p95
g8
Ntp96
Rp97
(dp98
g17
((I-2
g67
tp99
tp100
sg28
g67
sS'power'
p101
I-2
sg35
F1.0
sbsg17
g90
sg82
g6
(g91
g8
Ntp102
Rp103
(dp104
g81
g6
(g95
g8
Ntp105
Rp106
(dp107
g17
((I2
g25
tp108
tp109
sg28
g25
sg101
I2
sg35
I1
sbsg17
((I2
g25
tp110
(I1
g63
tp111
tp112
sg82
g63
sg35
I1
sbsg35
F1.0
sbsg34
S'joule'
p113
sg35
F1.0
sbsg35
F1.0
sbsg34
S'watt'
p114
sg35
F1.0
sbsbsg34
S'solar luminosity'
p115
sg35
F3.839e+26
sbg37
(g38
(I0
tp116
g40
tp117
Rp118
(I1
(I1
tp119
g47
I00
S'\x1bK\xd8q\xe0\xab\xee?'
p120
tp121
btp122
bsg61
g6
(camuse.units.quantities
ScalarQuantity
p123
g8
Ntp124
Rp125
(g6
(g11
g8
Ntp126
Rp127
(dp128
g15
S'MSun'
p129
sg17
((I1
g63
tp130
tp131
sg28
g6
(g29
g8
Ntp132
Rp133
(dp134
g33
F1.98892e+30
sg34
Nsg15
Nsg17
g131
sg35
F1.98892e+30
sg28
g63
sbsg34
S'solar mass'
p135
sg35
F1.98892e+30
sbI1
tp136
bsS'runtime'
p137
F0.2017650604248047
sa(dp138
g2
S'SeBa'
p139
sg4
F0.02
sg5
g6
(g7
g8
Ntp140
Rp141
(g13
g37
(g38
(I0
tp142
g40
tp143
Rp144
(I1
(I1
tp145
g47
I00
S'\xdbE\xb1\xc7"H\xf5>'
p146
tp147
btp148
bsg53
g6
(g7
g8
Ntp149
Rp150
(g57
g37
(g38
(I0
tp151
g40
tp152
Rp153
(I1
(I1
tp154
g47
I00
S'\xf2\xfb\x82\xad\x90\xa1\x9a@'
p155
tp156
btp157
bsg61
g6
(g123
g8
Ntp158
Rp159
(g127
I10
tp160
bsg137
F0.1778109073638916
sa(dp161
g2
S'SeBa'
p162
sg4
F0.02
sg5
g6
(g7
g8
Ntp163
Rp164
(g13
g37
(g38
(I0
tp165
g40
tp166
Rp167
(I1
(I1
tp168
g47
I00
S'3w\xd6\xa2\xb4u\x02?'
p169
tp170
btp171
bsg53
g6
(g7
g8
Ntp172
Rp173
(g57
g37
(g38
(I0
tp174
g40
tp175
Rp176
(I1
(I1
tp177
g47
I00
S'{\x14\xaeG\xe1z\x84?'
p178
tp179
btp180
bsg61
g6
(g123
g8
Ntp181
Rp182
(g127
I100
tp183
bsg137
F0.1430368423461914
sa(dp184
g2
S'SeBa'
p185
sg4
F0.018
sg5
g6
(g7
g8
Ntp186
Rp187
(g13
g37
(g38
(I0
tp188
g40
tp189
Rp190
(I1
(I1
tp191
g47
I00
S'\xfdl\xbbf\x19\xb5\xef?'
p192
tp193
btp194
bsg53
g6
(g7
g8
Ntp195
Rp196
(g57
g37
(g38
(I0
tp197
g40
tp198
Rp199
(I1
(I1
tp200
g47
I00
S'\x00\xbc\x83\xe7\xf8<\xf0?'
p201
tp202
btp203
bsg61
g6
(g123
g8
Ntp204
Rp205
(g127
I1
tp206
bsg137
F0.13422894477844238
sa(dp207
g2
S'SeBa'
p208
sg4
F0.018
sg5
g6
(g7
g8
Ntp209
Rp210
(g13
g37
(g38
(I0
tp211
g40
tp212
Rp213
(I1
(I1
tp214
g47
I00
S'\xb1\xee\x0e\xe2\x03H\xf5>'
p215
tp216
btp217
bsg53
g6
(g7
g8
Ntp218
Rp219
(g57
g37
(g38
(I0
tp220
g40
tp221
Rp222
(I1
(I1
tp223
g47
I00
S'\xe1\xd3\x08w6\xa1\x9a@'
p224
tp225
btp226
bsg61
g6
(g123
g8
Ntp227
Rp228
(g127
I10
tp229
bsg137
F0.14092087745666504
sa(dp230
g2
S'SeBa'
p231
sg4
F0.018
sg5
g6
(g7
g8
Ntp232
Rp233
(g13
g37
(g38
(I0
tp234
g40
tp235
Rp236
(I1
(I1
tp237
g47
I00
S'P\xd52\x12\xc8B\x02?'
p238
tp239
btp240
bsg53
g6
(g7
g8
Ntp241
Rp242
(g57
g37
(g38
(I0
tp243
g40
tp244
Rp245
(I1
(I1
tp246
g47
I00
S'{\x14\xaeG\xe1z\x84?'
p247
tp248
btp249
bsg61
g6
(g123
g8
Ntp250
Rp251
(g127
I100
tp252
bsg137
F0.14518404006958008
sa(dp253
g2
S'SeBa'
p254
sg4
F0.0122
sg5
g6
(g7
g8
Ntp255
Rp256
(g13
g37
(g38
(I0
tp257
g40
tp258
Rp259
(I1
(I1
tp260
g47
I00
S'\xa7\xeb\xdb\x9d|\xa3\xf0?'
p261
tp262
btp263
bsg53
g6
(g7
g8
Ntp264
Rp265
(g57
g37
(g38
(I0
tp266
g40
tp267
Rp268
(I1
(I1
tp269
g47
I00
S'\xf8\xec\xe7S\x1b\xaa\xf3?'
p270
tp271
btp272
bsg61
g6
(g123
g8
Ntp273
Rp274
(g127
I1
tp275
bsg137
F0.1306600570678711
sa(dp276
g2
S'SeBa'
p277
sg4
F0.0122
sg5
g6
(g7
g8
Ntp278
Rp279
(g13
g37
(g38
(I0
tp280
g40
tp281
Rp282
(I1
(I1
tp283
g47
I00
S'=@g\x81\xa1G\xf5>'
p284
tp285
btp286
bsg53
g6
(g7
g8
Ntp287
Rp288
(g57
g37
(g38
(I0
tp289
g40
tp290
Rp291
(I1
(I1
tp292
g47
I00
S'.^\xa7=\x17\xa0\x9a@'
p293
tp294
btp295
bsg61
g6
(g123
g8
Ntp296
Rp297
(g127
I10
tp298
bsg137
F0.14757394790649414
sa(dp299
g2
S'SeBa'
p300
sg4
F0.0122
sg5
g6
(g7
g8
Ntp301
Rp302
(g13
g37
(g38
(I0
tp303
g40
tp304
Rp305
(I1
(I1
tp306
g47
I00
S'\r\xff\x8b\x82\xebH\x04?'
p307
tp308
btp309
bsg53
g6
(g7
g8
Ntp310
Rp311
(g57
g37
(g38
(I0
tp312
g40
tp313
Rp314
(I1
(I1
tp315
g47
I00
S'{\x14\xaeG\xe1z\x84?'
p316
tp317
btp318
bsg61
g6
(g123
g8
Ntp319
Rp320
(g127
I100
tp321
bsg137
F0.17726993560791016
sa(dp322
g2
S'SeBa'
p323
sg4
F0.0187
sg5
g6
(g7
g8
Ntp324
Rp325
(g13
g37
(g38
(I0
tp326
g40
tp327
Rp328
(I1
(I1
tp329
g47
I00
S'=P\x1e\x96\x1d\xa5\xef?'
p330
tp331
btp332
bsg53
g6
(g7
g8
Ntp333
Rp334
(g57
g37
(g38
(I0
tp335
g40
tp336
Rp337
(I1
(I1
tp338
g47
I00
S'i\x1e\xc7\xf3\x9b\xcc\xef?'
p339
tp340
btp341
bsg61
g6
(g123
g8
Ntp342
Rp343
(g127
I1
tp344
bsg137
F0.12801408767700195
sa(dp345
g2
S'SeBa'
p346
sg4
F0.0187
sg5
g6
(g7
g8
Ntp347
Rp348
(g13
g37
(g38
(I0
tp349
g40
tp350
Rp351
(I1
(I1
tp352
g47
I00
S'\x9b\xb1[\xc2\x13H\xf5>'
p353
tp354
btp355
bsg53
g6
(g7
g8
Ntp356
Rp357
(g57
g37
(g38
(I0
tp358
g40
tp359
Rp360
(I1
(I1
tp361
g47
I00
S'\x17\xcc\xda\xd1d\xa1\x9a@'
p362
tp363
btp364
bsg61
g6
(g123
g8
Ntp365
Rp366
(g127
I10
tp367
bsg137
F0.1460709571838379
sa(dp368
g2
S'SeBa'
p369
sg4
F0.0187
sg5
g6
(g7
g8
Ntp370
Rp371
(g13
g37
(g38
(I0
tp372
g40
tp373
Rp374
(I1
(I1
tp375
g47
I00
S'\x07\xffva\xd1\xf8\x01?'
p376
tp377
btp378
bsg53
g6
(g7
g8
Ntp379
Rp380
(g57
g37
(g38
(I0
tp381
g40
tp382
Rp383
(I1
(I1
tp384
g47
I00
S'{\x14\xaeG\xe1z\x84?'
p385
tp386
btp387
bsg61
g6
(g123
g8
Ntp388
Rp389
(g127
I100
tp390
bsg137
F0.13742804527282715
sa(dp391
g2
S'SeBa'
p392
sg4
F0.0239
sg5
g6
(g7
g8
Ntp393
Rp394
(g13
g37
(g38
(I0
tp395
g40
tp396
Rp397
(I1
(I1
tp398
g47
I00
S'\x8b\xa7B\xac\x06I\xef?'
p399
tp400
btp401
bsg53
g6
(g7
g8
Ntp402
Rp403
(g57
g37
(g38
(I0
tp404
g40
tp405
Rp406
(I1
(I1
tp407
g47
I00
S'\x92\xc4\xc0\x02\xd6>\xec?'
p408
tp409
btp410
bsg61
g6
(g123
g8
Ntp411
Rp412
(g127
I1
tp413
bsg137
F0.12944602966308594
sa(dp414
g2
S'SeBa'
p415
sg4
F0.0239
sg5
g6
(g7
g8
Ntp416
Rp417
(g13
g37
(g38
(I0
tp418
g40
tp419
Rp420
(I1
(I1
tp421
g47
I00
S'_`\x04\x10VH\xf5>'
p422
tp423
btp424
bsg53
g6
(g7
g8
Ntp425
Rp426
(g57
g37
(g38
(I0
tp427
g40
tp428
Rp429
(I1
(I1
tp430
g47
I00
S'g\xa9\xfaj&\xa2\x9a@'
p431
tp432
btp433
bsg61
g6
(g123
g8
Ntp434
Rp435
(g127
I10
tp436
bsg137
F0.1501469612121582
sa(dp437
g2
S'SeBa'
p438
sg4
F0.0239
sg5
g6
(g7
g8
Ntp439
Rp440
(g13
g37
(g38
(I0
tp441
g40
tp442
Rp443
(I1
(I1
tp444
g47
I00
S'I\xc2\x86=\x9c\x02`@'
p445
tp446
btp447
bsg53
g6
(g7
g8
Ntp448
Rp449
(g57
g37
(g38
(I0
tp450
g40
tp451
Rp452
(I1
(I1
tp453
g47
I00
S'kG\xb2w\xdb\x86\xab@'
p454
tp455
btp456
bsg61
g6
(g123
g8
Ntp457
Rp458
(g127
I100
tp459
bsg137
F0.13803791999816895
sa(dp460
g2
S'SSE'
p461
sg4
F0.02
sg5
g6
(g7
g8
Ntp462
Rp463
(g13
g37
(g38
(I0
tp464
g40
tp465
Rp466
(I1
(I1
tp467
g47
I00
S'4X\xf7\xf8&\x8a\xef?'
p468
tp469
btp470
bsg53
g6
(g7
g8
Ntp471
Rp472
(g57
g37
(g38
(I0
tp473
g40
tp474
Rp475
(I1
(I1
tp476
g47
I00
S'\x1bK\xd8q\xe0\xab\xee?'
p477
tp478
btp479
bsg61
g6
(g123
g8
Ntp480
Rp481
(g127
I1
tp482
bsg137
F0.10322809219360352
sa(dp483
g2
S'SSE'
p484
sg4
F0.02
sg5
g6
(g7
g8
Ntp485
Rp486
(g13
g37
(g38
(I0
tp487
g40
tp488
Rp489
(I1
(I1
tp490
g47
I00
S'\xb7_>Y1\\\xed>'
p491
tp492
btp493
bsg53
g6
(g7
g8
Ntp494
Rp495
(g57
g37
(g38
(I0
tp496
g40
tp497
Rp498
(I1
(I1
tp499
g47
I00
S'l\x89\xb6>\x18\xd5\x12?'
p500
tp501
btp502
bsg61
g6
(g123
g8
Ntp503
Rp504
(g127
I10
tp505
bsg137
F0.10423398017883301
sa(dp506
g2
S'SSE'
p507
sg4
F0.02
sg5
g6
(g7
g8
Ntp508
Rp509
(g13
g37
(g38
(I0
tp510
g40
tp511
Rp512
(I1
(I1
tp513
g47
I00
S'\x93\xf3\x95\x16U\xf1\x10?'
p514
tp515
btp516
bsg53
g6
(g7
g8
Ntp517
Rp518
(g57
g37
(g38
(I0
tp519
g40
tp520
Rp521
(I1
(I1
tp522
g47
I00
S'\xbb\xbd\xd7\xd9\xdf|\xdb='
p523
tp524
btp525
bsg61
g6
(g123
g8
Ntp526
Rp527
(g127
I100
tp528
bsg137
F0.10368990898132324
sa(dp529
g2
S'SSE'
p530
sg4
F0.018
sg5
g6
(g7
g8
Ntp531
Rp532
(g13
g37
(g38
(I0
tp533
g40
tp534
Rp535
(I1
(I1
tp536
g47
I00
S'\xfdl\xbbf\x19\xb5\xef?'
p537
tp538
btp539
bsg53
g6
(g7
g8
Ntp540
Rp541
(g57
g37
(g38
(I0
tp542
g40
tp543
Rp544
(I1
(I1
tp545
g47
I00
S'\x00\xbc\x83\xe7\xf8<\xf0?'
p546
tp547
btp548
bsg61
g6
(g123
g8
Ntp549
Rp550
(g127
I1
tp551
bsg137
F0.10331392288208008
sa(dp552
g2
S'SSE'
p553
sg4
F0.018
sg5
g6
(g7
g8
Ntp554
Rp555
(g13
g37
(g38
(I0
tp556
g40
tp557
Rp558
(I1
(I1
tp559
g47
I00
S'\xb7_>Y1\\\xed>'
p560
tp561
btp562
bsg53
g6
(g7
g8
Ntp563
Rp564
(g57
g37
(g38
(I0
tp565
g40
tp566
Rp567
(I1
(I1
tp568
g47
I00
S'n\xf4\xf2\x88{T\x13?'
p569
tp570
btp571
bsg61
g6
(g123
g8
Ntp572
Rp573
(g127
I10
tp574
bsg137
F0.11324191093444824
sa(dp575
g2
S'SSE'
p576
sg4
F0.018
sg5
g6
(g7
g8
Ntp577
Rp578
(g13
g37
(g38
(I0
tp579
g40
tp580
Rp581
(I1
(I1
tp582
g47
I00
S'\xc87\xca\xa1\tM\x11?'
p583
tp584
btp585
bsg53
g6
(g7
g8
Ntp586
Rp587
(g57
g37
(g38
(I0
tp588
g40
tp589
Rp590
(I1
(I1
tp591
g47
I00
S'\xbb\xbd\xd7\xd9\xdf|\xdb='
p592
tp593
btp594
bsg61
g6
(g123
g8
Ntp595
Rp596
(g127
I100
tp597
bsg137
F0.1087040901184082
sa(dp598
g2
S'SSE'
p599
sg4
F0.0122
sg5
g6
(g7
g8
Ntp600
Rp601
(g13
g37
(g38
(I0
tp602
g40
tp603
Rp604
(I1
(I1
tp605
g47
I00
S'\xa7\xeb\xdb\x9d|\xa3\xf0?'
p606
tp607
btp608
bsg53
g6
(g7
g8
Ntp609
Rp610
(g57
g37
(g38
(I0
tp611
g40
tp612
Rp613
(I1
(I1
tp614
g47
I00
S'\xf8\xec\xe7S\x1b\xaa\xf3?'
p615
tp616
btp617
bsg61
g6
(g123
g8
Ntp618
Rp619
(g127
I1
tp620
bsg137
F0.10348796844482422
sa(dp621
g2
S'SSE'
p622
sg4
F0.0122
sg5
g6
(g7
g8
Ntp623
Rp624
(g13
g37
(g38
(I0
tp625
g40
tp626
Rp627
(I1
(I1
tp628
g47
I00
S'\xb7_>Y1\\\xed>'
p629
tp630
btp631
bsg53
g6
(g7
g8
Ntp632
Rp633
(g57
g37
(g38
(I0
tp634
g40
tp635
Rp636
(I1
(I1
tp637
g47
I00
S'\xca\xfel\xd1\xd2\xf6\x14?'
p638
tp639
btp640
bsg61
g6
(g123
g8
Ntp641
Rp642
(g127
I10
tp643
bsg137
F0.10019898414611816
sa(dp644
g2
S'SSE'
p645
sg4
F0.0122
sg5
g6
(g7
g8
Ntp646
Rp647
(g13
g37
(g38
(I0
tp648
g40
tp649
Rp650
(I1
(I1
tp651
g47
I00
S'e^\n\x0f^\xaa\x12?'
p652
tp653
btp654
bsg53
g6
(g7
g8
Ntp655
Rp656
(g57
g37
(g38
(I0
tp657
g40
tp658
Rp659
(I1
(I1
tp660
g47
I00
S'\xbb\xbd\xd7\xd9\xdf|\xdb='
p661
tp662
btp663
bsg61
g6
(g123
g8
Ntp664
Rp665
(g127
I100
tp666
bsg137
F0.10881495475769043
sa(dp667
g2
S'SSE'
p668
sg4
F0.0187
sg5
g6
(g7
g8
Ntp669
Rp670
(g13
g37
(g38
(I0
tp671
g40
tp672
Rp673
(I1
(I1
tp674
g47
I00
S'=P\x1e\x96\x1d\xa5\xef?'
p675
tp676
btp677
bsg53
g6
(g7
g8
Ntp678
Rp679
(g57
g37
(g38
(I0
tp680
g40
tp681
Rp682
(I1
(I1
tp683
g47
I00
S'i\x1e\xc7\xf3\x9b\xcc\xef?'
p684
tp685
btp686
bsg61
g6
(g123
g8
Ntp687
Rp688
(g127
I1
tp689
bsg137
F0.10291004180908203
sa(dp690
g2
S'SSE'
p691
sg4
F0.0187
sg5
g6
(g7
g8
Ntp692
Rp693
(g13
g37
(g38
(I0
tp694
g40
tp695
Rp696
(I1
(I1
tp697
g47
I00
S'\xb7_>Y1\\\xed>'
p698
tp699
btp700
bsg53
g6
(g7
g8
Ntp701
Rp702
(g57
g37
(g38
(I0
tp703
g40
tp704
Rp705
(I1
(I1
tp706
g47
I00
S'!\xaf \x81\xf1&\x13?'
p707
tp708
btp709
bsg61
g6
(g123
g8
Ntp710
Rp711
(g127
I10
tp712
bsg137
F0.10448098182678223
sa(dp713
g2
S'SSE'
p714
sg4
F0.0187
sg5
g6
(g7
g8
Ntp715
Rp716
(g13
g37
(g38
(I0
tp717
g40
tp718
Rp719
(I1
(I1
tp720
g47
I00
S'\x10\xd3js\x071\x11?'
p721
tp722
btp723
bsg53
g6
(g7
g8
Ntp724
Rp725
(g57
g37
(g38
(I0
tp726
g40
tp727
Rp728
(I1
(I1
tp729
g47
I00
S'\xbb\xbd\xd7\xd9\xdf|\xdb='
p730
tp731
btp732
bsg61
g6
(g123
g8
Ntp733
Rp734
(g127
I100
tp735
bsg137
F0.10715103149414062
sa(dp736
g2
S'SSE'
p737
sg4
F0.0239
sg5
g6
(g7
g8
Ntp738
Rp739
(g13
g37
(g38
(I0
tp740
g40
tp741
Rp742
(I1
(I1
tp743
g47
I00
S'\x8b\xa7B\xac\x06I\xef?'
p744
tp745
btp746
bsg53
g6
(g7
g8
Ntp747
Rp748
(g57
g37
(g38
(I0
tp749
g40
tp750
Rp751
(I1
(I1
tp752
g47
I00
S'\x92\xc4\xc0\x02\xd6>\xec?'
p753
tp754
btp755
bsg61
g6
(g123
g8
Ntp756
Rp757
(g127
I1
tp758
bsg137
F0.10525894165039062
sa(dp759
g2
S'SSE'
p760
sg4
F0.0239
sg5
g6
(g7
g8
Ntp761
Rp762
(g13
g37
(g38
(I0
tp763
g40
tp764
Rp765
(I1
(I1
tp766
g47
I00
S'\xb7_>Y1\\\xed>'
p767
tp768
btp769
bsg53
g6
(g7
g8
Ntp770
Rp771
(g57
g37
(g38
(I0
tp772
g40
tp773
Rp774
(I1
(I1
tp775
g47
I00
S'I\x98e\x82i\xf3\x11?'
p776
tp777
btp778
bsg61
g6
(g123
g8
Ntp779
Rp780
(g127
I10
tp781
bsg137
F0.10936307907104492
sa(dp782
g2
S'SSE'
p783
sg4
F0.0239
sg5
g6
(g7
g8
Ntp784
Rp785
(g13
g37
(g38
(I0
tp786
g40
tp787
Rp788
(I1
(I1
tp789
g47
I00
S'\x17\x85\xf0\x8b.R\x10?'
p790
tp791
btp792
bsg53
g6
(g7
g8
Ntp793
Rp794
(g57
g37
(g38
(I0
tp795
g40
tp796
Rp797
(I1
(I1
tp798
g47
I00
S'\xbb\xbd\xd7\xd9\xdf|\xdb='
p799
tp800
btp801
bsg61
g6
(g123
g8
Ntp802
Rp803
(g127
I100
tp804
bsg137
F0.10568690299987793
sa(dp805
g2
S'EVtwin'
p806
sg4
F0.02
sg5
g6
(g7
g8
Ntp807
Rp808
(g13
g37
(g38
(I0
tp809
g40
tp810
Rp811
(I1
(I1
tp812
g47
I00
S'\xc4$0S\xc0z\xc7?'
p813
tp814
btp815
bsg53
g6
(g7
g8
Ntp816
Rp817
(g57
g37
(g38
(I0
tp818
g40
tp819
Rp820
(I1
(I1
tp821
g47
I00
S'\xf0f\xb7\xc1\x8bn\xf0?'
p822
tp823
btp824
bsg61
g6
(g123
g8
Ntp825
Rp826
(g127
I1
tp827
bsg137
F9.211205005645752
sa(dp828
g2
S'EVtwin'
p829
sg4
F0.018
sg5
g6
(g7
g8
Ntp830
Rp831
(g13
g37
(g38
(I0
tp832
g40
tp833
Rp834
(I1
(I1
tp835
g47
I00
S'\x86:\xbdY_X\xf7?'
p836
tp837
btp838
bsg53
g6
(g7
g8
Ntp839
Rp840
(g57
g37
(g38
(I0
tp841
g40
tp842
Rp843
(I1
(I1
tp844
g47
I00
S'\x9e\x04\x0c\xe5\xafl5@'
p845
tp846
btp847
bsg61
g6
(g123
g8
Ntp848
Rp849
(g127
I1
tp850
bsg137
F14.922693967819214
sa(dp851
g2
S'EVtwin'
p852
sg4
F0.0122
sg5
g6
(g7
g8
Ntp853
Rp854
(g13
g37
(g38
(I0
tp855
g40
tp856
Rp857
(I1
(I1
tp858
g47
I00
S'\xb8\x7fw \xd2M\xf6?'
p859
tp860
btp861
bsg53
g6
(g7
g8
Ntp862
Rp863
(g57
g37
(g38
(I0
tp864
g40
tp865
Rp866
(I1
(I1
tp867
g47
I00
S'\x08\xddPoym5@'
p868
tp869
btp870
bsg61
g6
(g123
g8
Ntp871
Rp872
(g127
I1
tp873
bsg137
F18.75122380256653
sa(dp874
g2
S'EVtwin'
p875
sg4
F0.0187
sg5
g6
(g7
g8
Ntp876
Rp877
(g13
g37
(g38
(I0
tp878
g40
tp879
Rp880
(I1
(I1
tp881
g47
I00
S'Y\x00m>\x84r\xf7?'
p882
tp883
btp884
bsg53
g6
(g7
g8
Ntp885
Rp886
(g57
g37
(g38
(I0
tp887
g40
tp888
Rp889
(I1
(I1
tp890
g47
I00
S'\xb3\xbfW7\xa3l5@'
p891
tp892
btp893
bsg61
g6
(g123
g8
Ntp894
Rp895
(g127
I1
tp896
bsg137
F15.559011936187744
sa(dp897
g2
S'EVtwin'
p898
sg4
F0.0239
sg5
g6
(g7
g8
Ntp899
Rp900
(g13
g37
(g38
(I0
tp901
g40
tp902
Rp903
(I1
(I1
tp904
g47
I00
S'G\xa8\x92\x97\x92\x0c\xf8?'
p905
tp906
btp907
bsg53
g6
(g7
g8
Ntp908
Rp909
(g57
g37
(g38
(I0
tp910
g40
tp911
Rp912
(I1
(I1
tp913
g47
I00
S'\xdc\n"x\x00l5@'
p914
tp915
btp916
bsg61
g6
(g123
g8
Ntp917
Rp918
(g127
I1
tp919
bsg137
F15.940285921096802
sa(dp920
g2
S'MESA'
p921
sg4
F0.02
sg5
g6
(g7
g8
Ntp922
Rp923
(g13
g37
(g38
(I0
tp924
g40
tp925
Rp926
(I1
(I1
tp927
g47
I00
S'\x0f\x0e\xf0_tA\xf0?'
p928
tp929
btp930
bsg53
g6
(g7
g8
Ntp931
Rp932
(g57
g37
(g38
(I0
tp933
g40
tp934
Rp935
(I1
(I1
tp936
g47
I00
S'\xdc2\xc3\x89?\x8d\xf0?'
p937
tp938
btp939
bsg61
g6
(g123
g8
Ntp940
Rp941
(g127
I1
tp942
bsg137
F7.029875993728638
sa(dp943
g2
S'MESA'
p944
sg4
F0.018
sg5
g6
(g7
g8
Ntp945
Rp946
(g13
g37
(g38
(I0
tp947
g40
tp948
Rp949
(I1
(I1
tp950
g47
I00
S'\x9b\xf6ze\x91z\xf0?'
p951
tp952
btp953
bsg53
g6
(g7
g8
Ntp954
Rp955
(g57
g37
(g38
(I0
tp956
g40
tp957
Rp958
(I1
(I1
tp959
g47
I00
S'\xee\x80N\xab\x06\x9f\xf1?'
p960
tp961
btp962
bsg61
g6
(g123
g8
Ntp963
Rp964
(g127
I1
tp965
bsg137
F3350.1995148658752
sa(dp966
g2
S'MESA'
p967
sg4
F0.0122
sg5
g6
(g7
g8
Ntp968
Rp969
(g13
g37
(g38
(I0
tp970
g40
tp971
Rp972
(I1
(I1
tp973
g47
I00
S'\xf1_\x14\xd9BH\xf1?'
p974
tp975
btp976
bsg53
g6
(g7
g8
Ntp977
Rp978
(g57
g37
(g38
(I0
tp979
g40
tp980
Rp981
(I1
(I1
tp982
g47
I00
S'\xc7%\xef?\xb9x\xf5?'
p983
tp984
btp985
bsg61
g6
(g123
g8
Ntp986
Rp987
(g127
I1
tp988
bsg137
F3221.300726890564
sa(dp989
g2
S'MESA'
p990
sg4
F0.0187
sg5
g6
(g7
g8
Ntp991
Rp992
(g13
g37
(g38
(I0
tp993
g40
tp994
Rp995
(I1
(I1
tp996
g47
I00
S'l=Q\xd6\xa5U\xf0?'
p997
tp998
btp999
bsg53
g6
(g7
g8
Ntp1000
Rp1001
(g57
g37
(g38
(I0
tp1002
g40
tp1003
Rp1004
(I1
(I1
tp1005
g47
I00
S'?\x9eE\xfa\xe4\x13\xf1?'
p1006
tp1007
btp1008
bsg61
g6
(g123
g8
Ntp1009
Rp1010
(g127
I1
tp1011
bsg137
F3394.4936821460724
sa(dp1012
g2
S'MESA'
p1013
sg4
F0.0239
sg5
g6
(g7
g8
Ntp1014
Rp1015
(g13
g37
(g38
(I0
tp1016
g40
tp1017
Rp1018
(I1
(I1
tp1019
g47
I00
S'\xb6\xa2\xef\xfe)\x04\xf0?'
p1020
tp1021
btp1022
bsg53
g6
(g7
g8
Ntp1023
Rp1024
(g57
g37
(g38
(I0
tp1025
g40
tp1026
Rp1027
(I1
(I1
tp1028
g47
I00
S'\x05fI\x81\x8f\x10\xef?'
p1029
tp1030
btp1031
bsg61
g6
(g123
g8
Ntp1032
Rp1033
(g127
I1
tp1034
bsg137
F3496.195785999298
sa.