(lp0
(dp1
S'distance'
p2
ccopy_reg
_reconstructor
p3
(camuse.units.quantities
ScalarQuantity
p4
c__builtin__
object
p5
Ntp6
Rp7
(g3
(camuse.units.core
named_unit
p8
g5
Ntp9
Rp10
(dp11
S'symbol'
p12
S'parsec'
p13
sS'base'
p14
((I1
camuse.units.core
get_base_unit_with_name
p15
(camuse.units.core
get_system_with_name
p16
(S'S.I.'
p17
tp18
Rp19
S'length'
p20
tp21
Rp22
tp23
tp24
sS'local_unit'
p25
g3
(camuse.units.core
factor_unit
p26
g5
Ntp27
Rp28
(dp29
S'local_factor'
p30
F206264.80624548031
sS'name'
p31
Nsg12
Nsg14
g24
sS'factor'
p32
F3.0856775812815532e+16
sg25
g3
(g8
g5
Ntp33
Rp34
(dp35
g12
S'AU'
p36
sg14
g24
sg25
g3
(g26
g5
Ntp37
Rp38
(dp39
g30
F149597870691.0
sg31
Nsg12
Nsg14
g24
sg32
F149597870691.0
sg25
g22
sbsg31
S'astronomical unit'
p40
sg32
F149597870691.0
sbsbsg31
g13
sg32
F3.0856775812815532e+16
sbI3000
tp41
bsS'escape_velocity_fraction'
p42
F0.8
sS'radius'
p43
g3
(g4
g5
Ntp44
Rp45
(g3
(g26
g5
Ntp46
Rp47
(dp48
g30
F3.0856775812815532e+16
sg31
Nsg12
Nsg14
g24
sg32
F3.0856775812815532e+16
sg25
g22
sbF15.0
tp49
bsS'hop_mass_fraction'
p50
cnumpy.core.multiarray
scalar
p51
(cnumpy
dtype
p52
(S'f8'
p53
I0
I1
tp54
Rp55
(I3
S'<'
p56
NNNI-1
I-1
I0
tp57
bS'\xf0\xff\xff\xff\xff\xdf\xe6?'
p58
tp59
Rp60
sS'velocity'
p61
g3
(g4
g5
Ntp62
Rp63
(g3
(camuse.units.core
mul_unit
p64
g5
Ntp65
Rp66
(dp67
S'right_hand'
p68
g3
(camuse.units.core
pow_unit
p69
g5
Ntp70
Rp71
(dp72
g14
((I-1
g15
(g19
S'time'
p73
tp74
Rp75
tp76
tp77
sg25
g75
sS'power'
p78
I-1
sg32
F1.0
sbsg14
((I1
g22
tp79
(I-1
g75
tp80
tp81
sS'left_hand'
p82
g22
sg32
F1.0
sbg51
(g55
S'\xdb\xc9b\xea\x8747A'
p83
tp84
Rp85
tp86
bsS'kepler_params'
p87
(g3
(g4
g5
Ntp88
Rp89
(g22
g51
(g55
S'j\xba\xcf\x16\xf3\x1f\x19D'
p90
tp91
Rp92
tp93
bg51
(g55
S'/8\xed\x17\xce\xea\xd3?'
p94
tp95
Rp96
tp97
sa(dp98
g2
g7
sg42
F1.0
sg43
g45
sg50
g51
(g55
S'\xfc\xff\xff\xff\xff\x97\xed?'
p99
tp100
Rp101
sg61
g3
(g4
g5
Ntp102
Rp103
(g3
(g64
g5
Ntp104
Rp105
(dp106
g68
g3
(g69
g5
Ntp107
Rp108
(dp109
g14
((I-1
g75
tp110
tp111
sg25
g75
sg78
I-1
sg32
F1.0
sbsg14
((I1
g22
tp112
(I-1
g75
tp113
tp114
sg82
g22
sg32
F1.0
sbg51
(g55
S'Q|\xfb\xe4\xa9\x01=A'
p115
tp116
Rp117
tp118
bsg87
(g3
(g4
g5
Ntp119
Rp120
(g22
g51
(g55
S'+\xf9\x81\xb8\x96d\xcfD'
p121
tp122
Rp123
tp124
bg51
(g55
S'+\xf8\x18\xcfq\xfd\xef?'
p125
tp126
Rp127
tp128
sa(dp129
g2
g7
sg42
F1.2
sg43
g45
sg50
g51
(g55
S'\xfe\xff\xff\xff\xff\xd7\xee?'
p130
tp131
Rp132
sg61
g3
(g4
g5
Ntp133
Rp134
(g3
(g64
g5
Ntp135
Rp136
(dp137
g68
g3
(g69
g5
Ntp138
Rp139
(dp140
g14
((I-1
g75
tp141
tp142
sg25
g75
sg78
I-1
sg32
F1.0
sbsg14
((I1
g22
tp143
(I-1
g75
tp144
tp145
sg82
g22
sg32
F1.0
sbg51
(g55
S'd\x17\xca\xefegAA'
p146
tp147
Rp148
tp149
bsg87
(g3
(g4
g5
Ntp150
Rp151
(g22
g51
(g55
S'\xc4\xe6\x8d\xb9\xd4\xcf\x16D'
p152
tp153
Rp154
tp155
bg51
(g55
S'\xe1\xcd\xaf\xbb\x04\x14\xfe?'
p156
tp157
Rp158
tp159
sa(dp160
g2
g3
(g4
g5
Ntp161
Rp162
(g10
I6000
tp163
bsg42
F0.8
sg43
g3
(g4
g5
Ntp164
Rp165
(g3
(g26
g5
Ntp166
Rp167
(dp168
g30
F3.0856775812815532e+16
sg31
Nsg12
Nsg14
g24
sg32
F3.0856775812815532e+16
sg25
g22
sbF30.0
tp169
bsg50
g51
(g55
S'\xf3\xff\xff\xff\xff\x97\xe8?'
p170
tp171
Rp172
sg61
g3
(g4
g5
Ntp173
Rp174
(g3
(g64
g5
Ntp175
Rp176
(dp177
g68
g3
(g69
g5
Ntp178
Rp179
(dp180
g14
((I-1
g75
tp181
tp182
sg25
g75
sg78
I-1
sg32
F1.0
sbsg14
((I1
g22
tp183
(I-1
g75
tp184
tp185
sg82
g22
sg32
F1.0
sbg51
(g55
S'\x13\xa3j\xf6\x96h0A'
p186
tp187
Rp188
tp189
bsg87
(g3
(g4
g5
Ntp190
Rp191
(g22
g51
(g55
S'\xd0-e<\x11\x97)D'
p192
tp193
Rp194
tp195
bg51
(g55
S'^E\x8a\xabL\x7f\xd3?'
p196
tp197
Rp198
tp199
sa(dp200
g2
g162
sg42
F1.0
sg43
g165
sg50
g51
(g55
S'\xfc\xff\xff\xff\xff\xcf\xed?'
p201
tp202
Rp203
sg61
g3
(g4
g5
Ntp204
Rp205
(g3
(g64
g5
Ntp206
Rp207
(dp208
g68
g3
(g69
g5
Ntp209
Rp210
(dp211
g14
((I-1
g75
tp212
tp213
sg25
g75
sg78
I-1
sg32
F1.0
sbsg14
((I1
g22
tp214
(I-1
g75
tp215
tp216
sg82
g22
sg32
F1.0
sbg51
(g55
S'\xd8K\x05\xb4\xbc\x824A'
p217
tp218
Rp219
tp220
bsg87
(g3
(g4
g5
Ntp221
Rp222
(g22
g51
(g55
S'\xe3?d\x99Ma\xe7D'
p223
tp224
Rp225
tp226
bg51
(g55
S'\x98\xef\xf6\xa8H\xfe\xef?'
p227
tp228
Rp229
tp230
sa(dp231
g2
g162
sg42
F1.2
sg43
g165
sg50
g51
(g55
S"\xff\xff\xff\xff\xff'\xef?"
p232
tp233
Rp234
sg61
g3
(g4
g5
Ntp235
Rp236
(g3
(g64
g5
Ntp237
Rp238
(dp239
g68
g3
(g69
g5
Ntp240
Rp241
(dp242
g14
((I-1
g75
tp243
tp244
sg25
g75
sg78
I-1
sg32
F1.0
sbsg14
((I1
g22
tp245
(I-1
g75
tp246
tp247
sg82
g22
sg32
F1.0
sbg51
(g55
S'\x9d\xf4\x9fq\xe2\x9c8A'
p248
tp249
Rp250
tp251
bsg87
(g3
(g4
g5
Ntp252
Rp253
(g22
g51
(g55
S'{\x7f\x82>E\xd0&D'
p254
tp255
Rp256
tp257
bg51
(g55
S'F\x02\xdfo\xc8\x13\xfe?'
p258
tp259
Rp260
tp261
sa(dp262
g2
g3
(g4
g5
Ntp263
Rp264
(g10
I12000
tp265
bsg42
F0.8
sg43
g3
(g4
g5
Ntp266
Rp267
(g3
(g26
g5
Ntp268
Rp269
(dp270
g30
F3.0856775812815532e+16
sg31
Nsg12
Nsg14
g24
sg32
F3.0856775812815532e+16
sg25
g22
sbF60.0
tp271
bsg50
g51
(g55
S'\xf4\xff\xff\xff\xff\xcf\xe8?'
p272
tp273
Rp274
sg61
g3
(g4
g5
Ntp275
Rp276
(g3
(g64
g5
Ntp277
Rp278
(dp279
g68
g3
(g69
g5
Ntp280
Rp281
(dp282
g14
((I-1
g75
tp283
tp284
sg25
g75
sg78
I-1
sg32
F1.0
sbsg14
((I1
g22
tp285
(I-1
g75
tp286
tp287
sg82
g22
sg32
F1.0
sbg51
(g55
S"\xf0\xc9b\xea\x874'A"
p288
tp289
Rp290
tp291
bsg87
(g3
(g4
g5
Ntp292
Rp293
(g22
g51
(g55
S'\xc8Ar\x93\xde\xb79D'
p294
tp295
Rp296
tp297
bg51
(g55
S'\xf6*\x88\x86\\]\xd3?'
p298
tp299
Rp300
tp301
sa(dp302
g2
g264
sg42
F1.0
sg43
g267
sg50
g51
(g55
S'\xfd\xff\xff\xff\xffO\xee?'
p303
tp304
Rp305
sg61
g3
(g4
g5
Ntp306
Rp307
(g3
(g64
g5
Ntp308
Rp309
(dp310
g68
g3
(g69
g5
Ntp311
Rp312
(dp313
g14
((I-1
g75
tp314
tp315
sg25
g75
sg78
I-1
sg32
F1.0
sbsg14
((I1
g22
tp316
(I-1
g75
tp317
tp318
sg82
g22
sg32
F1.0
sbg51
(g55
S'l|\xfb\xe4\xa9\x01-A'
p319
tp320
Rp321
tp322
bsg87
(g3
(g4
g5
Ntp323
Rp324
(g22
g51
(g55
S'\x93\xb0b]\x07\n\x02E'
p325
tp326
Rp327
tp328
bg51
(g55
S'\xa4\xc2\x82:\xe3\xfe\xef?'
p329
tp330
Rp331
tp332
sa(dp333
g2
g264
sg42
F1.2
sg43
g267
sg50
g51
(g55
S'\xfe\xff\xff\xff\xff\xd7\xee?'
p334
tp335
Rp336
sg61
g3
(g4
g5
Ntp337
Rp338
(g3
(g64
g5
Ntp339
Rp340
(dp341
g68
g3
(g69
g5
Ntp342
Rp343
(dp344
g14
((I-1
g75
tp345
tp346
sg25
g75
sg78
I-1
sg32
F1.0
sbsg14
((I1
g22
tp347
(I-1
g75
tp348
tp349
sg82
g22
sg32
F1.0
sbg51
(g55
S't\x17\xca\xefeg1A'
p350
tp351
Rp352
tp353
bsg87
(g3
(g4
g5
Ntp354
Rp355
(g22
g51
(g55
S'\x01\x0b\xa70*\xd06D'
p356
tp357
Rp358
tp359
bg51
(g55
S'\x13\x06\x83J\xce\x13\xfe?'
p360
tp361
Rp362
tp363
sa(dp364
g2
g3
(g4
g5
Ntp365
Rp366
(g10
I18000
tp367
bsg42
F0.8
sg43
g3
(g4
g5
Ntp368
Rp369
(g3
(g26
g5
Ntp370
Rp371
(dp372
g30
F3.0856775812815532e+16
sg31
Nsg12
Nsg14
g24
sg32
F3.0856775812815532e+16
sg25
g22
sbF90.0
tp373
bsg50
g51
(g55
S'\xf2\xff\xff\xff\xff\x17\xe8?'
p374
tp375
Rp376
sg61
g3
(g4
g5
Ntp377
Rp378
(g3
(g64
g5
Ntp379
Rp380
(dp381
g68
g3
(g69
g5
Ntp382
Rp383
(dp384
g14
((I-1
g75
tp385
tp386
sg25
g75
sg78
I-1
sg32
F1.0
sbsg14
((I1
g22
tp387
(I-1
g75
tp388
tp389
sg82
g22
sg32
F1.0
sbg51
(g55
S'\x9f\x16\xdeUl\xf2"A'
p390
tp391
Rp392
tp393
bsg87
(g3
(g4
g5
Ntp394
Rp395
(g22
g51
(g55
S'\x17xIk\xad:CD'
p396
tp397
Rp398
tp399
bg51
(g55
S'\xd4\xa7\xd8\x8b\x1d\x8c\xd3?'
p400
tp401
Rp402
tp403
sa(dp404
g2
g366
sg42
F1.0
sg43
g369
sg50
g51
(g55
S'\xfd\xff\xff\xff\xff\x87\xee?'
p405
tp406
Rp407
sg61
g3
(g4
g5
Ntp408
Rp409
(g3
(g64
g5
Ntp410
Rp411
(dp412
g68
g3
(g69
g5
Ntp413
Rp414
(dp415
g14
((I-1
g75
tp416
tp417
sg25
g75
sg78
I-1
sg32
F1.0
sbsg14
((I1
g22
tp418
(I-1
g75
tp419
tp420
sg82
g22
sg32
F1.0
sbg51
(g55
S"G\x9cUk\x07\xaf'A"
p421
tp422
Rp423
tp424
bsg87
(g3
(g4
g5
Ntp425
Rp426
(g22
g51
(g55
S'\xe3Z\xebE\x8e\x8d\x0cE'
p427
tp428
Rp429
tp430
bg51
(g55
S'\xfeev \xf2\xfe\xef?'
p431
tp432
Rp433
tp434
sa(dp435
g2
g366
sg42
F1.2
sg43
g369
sg50
g51
(g55
S'\xfe\xff\xff\xff\xff\x17\xef?'
p436
tp437
Rp438
sg61
g3
(g4
g5
Ntp439
Rp440
(g3
(g64
g5
Ntp441
Rp442
(dp443
g68
g3
(g69
g5
Ntp444
Rp445
(dp446
g14
((I-1
g75
tp447
tp448
sg25
g75
sg78
I-1
sg32
F1.0
sbsg14
((I1
g22
tp449
(I-1
g75
tp450
tp451
sg82
g22
sg32
F1.0
sbg51
(g55
S'\xef!\xcd\x80\xa2k,A'
p452
tp453
Rp454
tp455
bsg87
(g3
(g4
g5
Ntp456
Rp457
(g22
g51
(g55
S'=C\x8e(F\x1cAD'
p458
tp459
Rp460
tp461
bg51
(g55
S'\x96EF\x1e\x97\x13\xfe?'
p462
tp463
Rp464
tp465
sa.